target datalayout = "e-m:e-p270:32:32-p271:32:32-p272:64:64-i64:64-i128:128-f80:128-n8:16:32:64-S128"
target triple = "x86_64-pc-linux-gnu"

%struct.Tuplesortstate = type { %struct.TuplesortPublic, i32, i8, i8, i32, i64, i64, i64, i32, i64, i8, i32, ptr, ptr, i32, i32, i8, i8, ptr, ptr, ptr, i64, ptr, i32, ptr, i32, i32, ptr, i32, i32, ptr, ptr, i32, i8, i64, i32, i8, i32, ptr, i32, i64, %struct.PGRUsage }
%struct.TuplesortPublic = type { ptr, ptr, ptr, ptr, ptr, ptr, ptr, ptr, ptr, i8, i32, ptr, ptr, i32, i8, ptr }
%struct.PGRUsage = type { %struct.timeval, %struct.rusage }
%struct.timeval = type { i64, i64 }
%struct.rusage = type { %struct.timeval, %struct.timeval, %union.anon, %union.anon.0, %union.anon.1, %union.anon.2, %union.anon.3, %union.anon.4, %union.anon.5, %union.anon.6, %union.anon.7, %union.anon.8, %union.anon.9, %union.anon.10, %union.anon.11, %union.anon.12 }
%union.anon = type { i64 }
%union.anon.0 = type { i64 }
%union.anon.1 = type { i64 }
%union.anon.2 = type { i64 }
%union.anon.3 = type { i64 }
%union.anon.4 = type { i64 }
%union.anon.5 = type { i64 }
%union.anon.6 = type { i64 }
%union.anon.7 = type { i64 }
%union.anon.8 = type { i64 }
%union.anon.9 = type { i64 }
%union.anon.10 = type { i64 }
%union.anon.11 = type { i64 }
%union.anon.12 = type { i64 }
%struct.SortTuple = type { ptr, i64, i8, i32 }

@.str.1 = private unnamed_addr constant [12 x i8] c"tuplesort.c\00", align 1
@InterruptPending = external global i32, align 4
@.str.35 = private unnamed_addr constant [23 x i8] c"unexpected end of tape\00", align 1
@__func__.getlen = private unnamed_addr constant [7 x i8] c"getlen\00", align 1
@.str.36 = private unnamed_addr constant [23 x i8] c"unexpected end of data\00", align 1

; Function Attrs: nounwind uwtable
define internal i32 @getlen(ptr noundef %0, i1 noundef zeroext %1) #0 {
  %3 = alloca ptr, align 8
  %4 = alloca i8, align 1
  %5 = alloca i32, align 4
  store ptr %0, ptr %3, align 8
  %6 = zext i1 %1 to i8
  store i8 %6, ptr %4, align 1
  call void @llvm.lifetime.start.p0(i64 4, ptr %5) #9
  %7 = load ptr, ptr %3, align 8
  %8 = call i64 @LogicalTapeRead(ptr noundef %7, ptr noundef %5, i64 noundef 4)
  %9 = icmp ne i64 %8, 4
  br i1 %9, label %10, label %21

10:                                               ; preds = %2
  br label %11

11:                                               ; preds = %10
  br i1 true, label %12, label %14

12:                                               ; preds = %11
  %13 = call zeroext i1 @errstart_cold(i32 noundef 21, ptr noundef null) #10
  br i1 %13, label %16, label %18

14:                                               ; preds = %11
  %15 = call zeroext i1 @errstart(i32 noundef 21, ptr noundef null)
  br i1 %15, label %16, label %18

16:                                               ; preds = %14, %12
  %17 = call i32 (ptr, ...) @errmsg_internal(ptr noundef @.str.35)
  call void @errfinish(ptr noundef @.str.1, i32 noundef 2862, ptr noundef @__func__.getlen)
  br label %18

18:                                               ; preds = %16, %14, %12
  unreachable

19:                                               ; No predecessors!
  br label %20

20:                                               ; preds = %19
  br label %21

21:                                               ; preds = %20, %2
  %22 = load i32, ptr %5, align 4
  %23 = icmp eq i32 %22, 0
  br i1 %23, label %24, label %38

24:                                               ; preds = %21
  %25 = load i8, ptr %4, align 1, !range !4, !noundef !5
  %26 = trunc i8 %25 to i1
  br i1 %26, label %38, label %27

27:                                               ; preds = %24
  br label %28

28:                                               ; preds = %27
  br i1 true, label %29, label %31

29:                                               ; preds = %28
  %30 = call zeroext i1 @errstart_cold(i32 noundef 21, ptr noundef null) #10
  br i1 %30, label %33, label %35

31:                                               ; preds = %28
  %32 = call zeroext i1 @errstart(i32 noundef 21, ptr noundef null)
  br i1 %32, label %33, label %35

33:                                               ; preds = %31, %29
  %34 = call i32 (ptr, ...) @errmsg_internal(ptr noundef @.str.36)
  call void @errfinish(ptr noundef @.str.1, i32 noundef 2864, ptr noundef @__func__.getlen)
  br label %35

35:                                               ; preds = %33, %31, %29
  unreachable

36:                                               ; No predecessors!
  br label %37

37:                                               ; preds = %36
  br label %38

38:                                               ; preds = %37, %24, %21
  %39 = load i32, ptr %5, align 4
  call void @llvm.lifetime.end.p0(i64 4, ptr %5) #9
  ret i32 %39
}

; Function Attrs: nounwind uwtable
define internal void @tuplesort_heap_insert(ptr noundef %0, ptr noundef %1) #0 {
  %3 = alloca ptr, align 8
  %4 = alloca ptr, align 8
  %5 = alloca ptr, align 8
  %6 = alloca i32, align 4
  %7 = alloca i32, align 4
  %8 = alloca i32, align 4
  store ptr %0, ptr %3, align 8
  store ptr %1, ptr %4, align 8
  call void @llvm.lifetime.start.p0(i64 8, ptr %5) #9
  call void @llvm.lifetime.start.p0(i64 4, ptr %6) #9
  %9 = load ptr, ptr %3, align 8
  %10 = getelementptr inbounds nuw %struct.Tuplesortstate, ptr %9, i32 0, i32 13
  %11 = load ptr, ptr %10, align 8
  store ptr %11, ptr %5, align 8
  br label %12

12:                                               ; preds = %2
  %13 = load volatile i32, ptr @InterruptPending, align 4
  %14 = icmp ne i32 %13, 0
  %15 = zext i1 %14 to i32
  %16 = sext i32 %15 to i64
  %17 = call i64 @llvm.expect.i64(i64 %16, i64 0)
  %18 = icmp ne i64 %17, 0
  br i1 %18, label %19, label %20

19:                                               ; preds = %12
  call void @ProcessInterrupts()
  br label %20

20:                                               ; preds = %19, %12
  br label %21

21:                                               ; preds = %20
  br label %22

22:                                               ; preds = %21
  %23 = load ptr, ptr %3, align 8
  %24 = getelementptr inbounds nuw %struct.Tuplesortstate, ptr %23, i32 0, i32 14
  %25 = load i32, ptr %24, align 8
  %26 = add i32 %25, 1
  store i32 %26, ptr %24, align 8
  store i32 %25, ptr %6, align 4
  br label %27

27:                                               ; preds = %59, %22
  %28 = load i32, ptr %6, align 4
  %29 = icmp sgt i32 %28, 0
  br i1 %29, label %30, label %60

30:                                               ; preds = %27
  call void @llvm.lifetime.start.p0(i64 4, ptr %7) #9
  %31 = load i32, ptr %6, align 4
  %32 = sub i32 %31, 1
  %33 = ashr i32 %32, 1
  store i32 %33, ptr %7, align 4
  %34 = load ptr, ptr %3, align 8
  %35 = getelementptr inbounds nuw %struct.Tuplesortstate, ptr %34, i32 0, i32 0
  %36 = getelementptr inbounds nuw %struct.TuplesortPublic, ptr %35, i32 0, i32 0
  %37 = load ptr, ptr %36, align 8
  %38 = load ptr, ptr %4, align 8
  %39 = load ptr, ptr %5, align 8
  %40 = load i32, ptr %7, align 4
  %41 = sext i32 %40 to i64
  %42 = getelementptr inbounds %struct.SortTuple, ptr %39, i64 %41
  %43 = load ptr, ptr %3, align 8
  %44 = call i32 %37(ptr noundef %38, ptr noundef %42, ptr noundef %43)
  %45 = icmp sge i32 %44, 0
  br i1 %45, label %46, label %47

46:                                               ; preds = %30
  store i32 5, ptr %8, align 4
  br label %57

47:                                               ; preds = %30
  %48 = load ptr, ptr %5, align 8
  %49 = load i32, ptr %6, align 4
  %50 = sext i32 %49 to i64
  %51 = getelementptr inbounds %struct.SortTuple, ptr %48, i64 %50
  %52 = load ptr, ptr %5, align 8
  %53 = load i32, ptr %7, align 4
  %54 = sext i32 %53 to i64
  %55 = getelementptr inbounds %struct.SortTuple, ptr %52, i64 %54
  call void @llvm.memcpy.p0.p0.i64(ptr align 8 %51, ptr align 8 %55, i64 24, i1 false)
  %56 = load i32, ptr %7, align 4
  store i32 %56, ptr %6, align 4
  store i32 0, ptr %8, align 4
  br label %57

57:                                               ; preds = %47, %46
  call void @llvm.lifetime.end.p0(i64 4, ptr %7) #9
  %58 = load i32, ptr %8, align 4
  switch i32 %58, label %66 [
    i32 0, label %59
    i32 5, label %60
  ]

59:                                               ; preds = %57
  br label %27, !llvm.loop !23

60:                                               ; preds = %57, %27
  %61 = load ptr, ptr %5, align 8
  %62 = load i32, ptr %6, align 4
  %63 = sext i32 %62 to i64
  %64 = getelementptr inbounds %struct.SortTuple, ptr %61, i64 %63
  %65 = load ptr, ptr %4, align 8
  call void @llvm.memcpy.p0.p0.i64(ptr align 8 %64, ptr align 8 %65, i64 24, i1 false)
  call void @llvm.lifetime.end.p0(i64 4, ptr %6) #9
  call void @llvm.lifetime.end.p0(i64 8, ptr %5) #9
  ret void

66:                                               ; preds = %57
  unreachable
}

; Function Attrs: nounwind uwtable
define internal zeroext i1 @mergereadnext(ptr noundef %0, ptr noundef %1, ptr noundef %2) #0 {
  %4 = alloca i1, align 1
  %5 = alloca ptr, align 8
  %6 = alloca ptr, align 8
  %7 = alloca ptr, align 8
  %8 = alloca i32, align 4
  %9 = alloca i32, align 4
  store ptr %0, ptr %5, align 8
  store ptr %1, ptr %6, align 8
  store ptr %2, ptr %7, align 8
  call void @llvm.lifetime.start.p0(i64 4, ptr %8) #9
  %10 = load ptr, ptr %6, align 8
  %11 = call i32 @getlen(ptr noundef %10, i1 noundef zeroext true)
  store i32 %11, ptr %8, align 4
  %12 = icmp eq i32 %11, 0
  br i1 %12, label %13, label %14

13:                                               ; preds = %3
  store i1 false, ptr %4, align 1
  store i32 1, ptr %9, align 4
  br label %23

14:                                               ; preds = %3
  %15 = load ptr, ptr %5, align 8
  %16 = getelementptr inbounds nuw %struct.Tuplesortstate, ptr %15, i32 0, i32 0
  %17 = getelementptr inbounds nuw %struct.TuplesortPublic, ptr %16, i32 0, i32 4
  %18 = load ptr, ptr %17, align 8
  %19 = load ptr, ptr %5, align 8
  %20 = load ptr, ptr %7, align 8
  %21 = load ptr, ptr %6, align 8
  %22 = load i32, ptr %8, align 4
  call void %18(ptr noundef %19, ptr noundef %20, ptr noundef %21, i32 noundef %22)
  store i1 true, ptr %4, align 1
  store i32 1, ptr %9, align 4
  br label %23

23:                                               ; preds = %14, %13
  call void @llvm.lifetime.end.p0(i64 4, ptr %8) #9
  %24 = load i1, ptr %4, align 1
  ret i1 %24
}

; Function Attrs: nounwind uwtable
define internal void @beginmerge(ptr noundef %0) #0 {
  %2 = alloca ptr, align 8
  %3 = alloca i32, align 4
  %4 = alloca i32, align 4
  %5 = alloca %struct.SortTuple, align 8
  store ptr %0, ptr %2, align 8
  call void @llvm.lifetime.start.p0(i64 4, ptr %3) #9
  call void @llvm.lifetime.start.p0(i64 4, ptr %4) #9
  %6 = load ptr, ptr %2, align 8
  %7 = getelementptr inbounds nuw %struct.Tuplesortstate, ptr %6, i32 0, i32 25
  %8 = load i32, ptr %7, align 8
  %9 = load ptr, ptr %2, align 8
  %10 = getelementptr inbounds nuw %struct.Tuplesortstate, ptr %9, i32 0, i32 26
  %11 = load i32, ptr %10, align 4
  %12 = icmp slt i32 %8, %11
  br i1 %12, label %13, label %17

13:                                               ; preds = %1
  %14 = load ptr, ptr %2, align 8
  %15 = getelementptr inbounds nuw %struct.Tuplesortstate, ptr %14, i32 0, i32 25
  %16 = load i32, ptr %15, align 8
  br label %21

17:                                               ; preds = %1
  %18 = load ptr, ptr %2, align 8
  %19 = getelementptr inbounds nuw %struct.Tuplesortstate, ptr %18, i32 0, i32 26
  %20 = load i32, ptr %19, align 4
  br label %21

21:                                               ; preds = %17, %13
  %22 = phi i32 [ %16, %13 ], [ %20, %17 ]
  store i32 %22, ptr %3, align 4
  store i32 0, ptr %4, align 4
  br label %23

23:                                               ; preds = %42, %21
  %24 = load i32, ptr %4, align 4
  %25 = load i32, ptr %3, align 4
  %26 = icmp slt i32 %24, %25
  br i1 %26, label %27, label %45

27:                                               ; preds = %23
  call void @llvm.lifetime.start.p0(i64 24, ptr %5) #9
  %28 = load ptr, ptr %2, align 8
  %29 = load ptr, ptr %2, align 8
  %30 = getelementptr inbounds nuw %struct.Tuplesortstate, ptr %29, i32 0, i32 24
  %31 = load ptr, ptr %30, align 8
  %32 = load i32, ptr %4, align 4
  %33 = sext i32 %32 to i64
  %34 = getelementptr inbounds ptr, ptr %31, i64 %33
  %35 = load ptr, ptr %34, align 8
  %36 = call zeroext i1 @mergereadnext(ptr noundef %28, ptr noundef %35, ptr noundef %5)
  br i1 %36, label %37, label %41

37:                                               ; preds = %27
  %38 = load i32, ptr %4, align 4
  %39 = getelementptr inbounds nuw %struct.SortTuple, ptr %5, i32 0, i32 3
  store i32 %38, ptr %39, align 4
  %40 = load ptr, ptr %2, align 8
  call void @tuplesort_heap_insert(ptr noundef %40, ptr noundef %5)
  br label %41

41:                                               ; preds = %37, %27
  call void @llvm.lifetime.end.p0(i64 24, ptr %5) #9
  br label %42

42:                                               ; preds = %41
  %43 = load i32, ptr %4, align 4
  %44 = add i32 %43, 1
  store i32 %44, ptr %4, align 4
  br label %23, !llvm.loop !20

45:                                               ; preds = %23
  call void @llvm.lifetime.end.p0(i64 4, ptr %4) #9
  call void @llvm.lifetime.end.p0(i64 4, ptr %3) #9
  ret void
}