; Function Attrs: nounwind uwtable
define internal fastcc void @beginmerge(ptr noundef %0) unnamed_addr #0 {
  %2 = alloca i32, align 4
  %3 = alloca %struct.SortTuple, align 8
  %4 = getelementptr inbounds nuw i8, ptr %0, i64 264
  %5 = load i32, ptr %4, align 8
  %6 = getelementptr inbounds nuw i8, ptr %0, i64 268
  %7 = load i32, ptr %6, align 4
  %. = tail call i32 @llvm.smin.i32(i32 %5, i32 %7)
  %8 = icmp sgt i32 %., 0
  br i1 %8, label %.lr.ph, label %._crit_edge

.lr.ph:                                           ; preds = %1
  %9 = getelementptr inbounds nuw i8, ptr %0, i64 256
  %10 = getelementptr inbounds nuw i8, ptr %0, i64 32
  %11 = getelementptr inbounds nuw i8, ptr %3, i64 20
  %12 = getelementptr inbounds nuw i8, ptr %0, i64 184
  %13 = getelementptr inbounds nuw i8, ptr %0, i64 192
  %wide.trip.count = zext nneg i32 %. to i64
  br label %14

14:                                               ; preds = %.lr.ph, %mergereadnext.exit
  %indvars.iv = phi i64 [ 0, %.lr.ph ], [ %indvars.iv.next, %mergereadnext.exit ]
  call void @llvm.lifetime.start.p0(i64 24, ptr nonnull %3) #13
  %15 = load ptr, ptr %9, align 8
  %16 = getelementptr inbounds nuw ptr, ptr %15, i64 %indvars.iv
  %17 = load ptr, ptr %16, align 8
  call void @llvm.lifetime.start.p0(i64 4, ptr nonnull %2) #13
  %18 = call i64 @LogicalTapeRead(ptr noundef %17, ptr noundef nonnull %2, i64 noundef 4) #13
  %.not.i.i = icmp eq i64 %18, 4
  br i1 %.not.i.i, label %getlen.exit.i, label %19

19:                                               ; preds = %14
  %20 = call zeroext i1 @errstart_cold(i32 noundef 21, ptr noundef null) #12
  call void @llvm.assume(i1 %20)
  %21 = call i32 (ptr, ...) @errmsg_internal(ptr noundef nonnull @.str.35) #13
  call void @errfinish(ptr noundef nonnull @.str.1, i32 noundef 2862, ptr noundef nonnull @__func__.getlen) #13
  unreachable

getlen.exit.i:                                    ; preds = %14
  %22 = load i32, ptr %2, align 4
  call void @llvm.lifetime.end.p0(i64 4, ptr nonnull %2) #13
  %.not = icmp eq i32 %22, 0
  br i1 %.not, label %mergereadnext.exit, label %23

23:                                               ; preds = %getlen.exit.i
  %24 = load ptr, ptr %10, align 8
  call void %24(ptr noundef nonnull %0, ptr noundef nonnull %3, ptr noundef %17, i32 noundef %22) #13
  %25 = trunc nuw nsw i64 %indvars.iv to i32
  store i32 %25, ptr %11, align 4
  %26 = load ptr, ptr %12, align 8
  %27 = load volatile i32, ptr @InterruptPending, align 4
  %.not.i = icmp eq i32 %27, 0
  br i1 %.not.i, label %29, label %28, !prof !10

28:                                               ; preds = %23
  call void @ProcessInterrupts() #13
  br label %29

29:                                               ; preds = %28, %23
  %30 = load i32, ptr %13, align 8
  %31 = add i32 %30, 1
  store i32 %31, ptr %13, align 8
  %32 = icmp sgt i32 %30, 0
  br i1 %32, label %.lr.ph.i, label %tuplesort_heap_insert.exit

.lr.ph.i:                                         ; preds = %29, %40
  %.01721.i = phi i32 [ %34, %40 ], [ %30, %29 ]
  %33 = add nsw i32 %.01721.i, -1
  %34 = lshr i32 %33, 1
  %35 = load ptr, ptr %0, align 8
  %36 = zext nneg i32 %34 to i64
  %37 = getelementptr inbounds nuw %struct.SortTuple, ptr %26, i64 %36
  %38 = call i32 %35(ptr noundef nonnull %3, ptr noundef %37, ptr noundef nonnull %0) #13
  %39 = icmp sgt i32 %38, -1
  br i1 %39, label %tuplesort_heap_insert.exit, label %40

40:                                               ; preds = %.lr.ph.i
  %41 = zext nneg i32 %.01721.i to i64
  %42 = getelementptr inbounds nuw %struct.SortTuple, ptr %26, i64 %41
  call void @llvm.memcpy.p0.p0.i64(ptr noundef nonnull align 8 dereferenceable(24) %42, ptr noundef nonnull align 8 dereferenceable(24) %37, i64 24, i1 false)
  %.not24.i = icmp ult i32 %33, 2
  br i1 %.not24.i, label %tuplesort_heap_insert.exit, label %.lr.ph.i

tuplesort_heap_insert.exit:                       ; preds = %.lr.ph.i, %40, %29
  %.017.lcssa.i = phi i32 [ %30, %29 ], [ %34, %40 ], [ %.01721.i, %.lr.ph.i ]
  %43 = sext i32 %.017.lcssa.i to i64
  %44 = getelementptr inbounds %struct.SortTuple, ptr %26, i64 %43
  call void @llvm.memcpy.p0.p0.i64(ptr noundef nonnull align 8 dereferenceable(24) %44, ptr noundef nonnull align 8 dereferenceable(24) %3, i64 24, i1 false)
  br label %mergereadnext.exit

mergereadnext.exit:                               ; preds = %getlen.exit.i, %tuplesort_heap_insert.exit
  call void @llvm.lifetime.end.p0(i64 24, ptr nonnull %3) #13
  %indvars.iv.next = add nuw nsw i64 %indvars.iv, 1
  %exitcond.not = icmp eq i64 %indvars.iv.next, %wide.trip.count
  br i1 %exitcond.not, label %._crit_edge, label %14, !llvm.loop !23

._crit_edge:                                      ; preds = %mergereadnext.exit, %1
  ret void
}